; Function Attrs: uwtable
define hidden noundef ptr @_ZThn104_N19OpenColorIO_v2_5dev17CTFReaderLut3DElt15updateDimensionERKSt6vectorIjSaIjEE(ptr noundef readonly captures(none) %0, ptr noundef nonnull readonly align 8 captures(none) dereferenceable(24) %1) unnamed_addr #21 align 2 {
  %3 = getelementptr inbounds nuw i8, ptr %1, i64 8
  %4 = load ptr, ptr %3, align 8, !tbaa !88
  %5 = load ptr, ptr %1, align 8, !tbaa !84
  %6 = ptrtoint ptr %4 to i64
  %7 = ptrtoint ptr %5 to i64
  %8 = sub i64 %6, %7
  %.not.i = icmp eq i64 %8, 16
  br i1 %.not.i, label %9, label %_ZN19OpenColorIO_v2_5dev17CTFReaderLut3DElt15updateDimensionERKSt6vectorIjSaIjEE.exit

9:                                                ; preds = %2
  %10 = icmp eq ptr %5, %4
  %spec.select.i = select i1 %10, i64 0, i64 3
  %11 = getelementptr inbounds nuw i32, ptr %5, i64 %spec.select.i
  %12 = load i32, ptr %11, align 4, !tbaa !35
  %13 = getelementptr inbounds nuw i8, ptr %5, i64 12
  %14 = load i32, ptr %13, align 4, !tbaa !35
  %.not15.i = icmp eq i32 %14, 3
  br i1 %.not15.i, label %15, label %_ZN19OpenColorIO_v2_5dev17CTFReaderLut3DElt15updateDimensionERKSt6vectorIjSaIjEE.exit

15:                                               ; preds = %9
  %16 = getelementptr inbounds nuw i8, ptr %5, i64 4
  %17 = load i32, ptr %16, align 4, !tbaa !35
  %18 = load i32, ptr %5, align 4, !tbaa !35
  %.not16.i = icmp eq i32 %17, %18
  br i1 %.not16.i, label %19, label %_ZN19OpenColorIO_v2_5dev17CTFReaderLut3DElt15updateDimensionERKSt6vectorIjSaIjEE.exit

19:                                               ; preds = %15
  %20 = getelementptr inbounds nuw i8, ptr %5, i64 8
  %21 = load i32, ptr %20, align 4, !tbaa !35
  %.not17.i = icmp eq i32 %21, %17
  br i1 %.not17.i, label %22, label %_ZN19OpenColorIO_v2_5dev17CTFReaderLut3DElt15updateDimensionERKSt6vectorIjSaIjEE.exit

22:                                               ; preds = %19
  %23 = getelementptr inbounds nuw i8, ptr %0, i64 32
  %24 = load ptr, ptr %23, align 8, !tbaa !1011
  %25 = getelementptr inbounds nuw i8, ptr %24, i64 176
  %26 = zext i32 %17 to i64
  %27 = zext i32 %12 to i64
  %28 = load ptr, ptr %25, align 8, !tbaa !9
  %29 = getelementptr inbounds nuw i8, ptr %28, i64 56
  %30 = load ptr, ptr %29, align 8
  tail call void %30(ptr noundef nonnull align 8 dereferenceable(48) %25, i64 noundef %26, i64 noundef %27)
  br label %_ZN19OpenColorIO_v2_5dev17CTFReaderLut3DElt15updateDimensionERKSt6vectorIjSaIjEE.exit

_ZN19OpenColorIO_v2_5dev17CTFReaderLut3DElt15updateDimensionERKSt6vectorIjSaIjEE.exit: ; preds = %2, %9, %15, %19, %22
  %.0.i = phi ptr [ null, %2 ], [ %25, %22 ], [ null, %19 ], [ null, %15 ], [ null, %9 ]
  ret ptr %.0.i
}